; Function Attrs: mustprogress nounwind uwtable
define dso_local void @_ZN4llvm19MachineTraceMetricsC2Ev(ptr noundef nonnull align 8 dereferenceable(456) initializes((0, 28), (32, 288)) %0) unnamed_addr #0 align 2 {
  %2 = getelementptr inbounds nuw i8, ptr %0, i64 8
  store ptr null, ptr %2, align 8
  %3 = getelementptr inbounds nuw i8, ptr %0, i64 16
  store ptr @_ZN4llvm19MachineTraceMetrics2IDE, ptr %3, align 8
  %4 = getelementptr inbounds nuw i8, ptr %0, i64 24
  store i32 2, ptr %4, align 8
  %5 = getelementptr inbounds nuw i8, ptr %0, i64 32
  tail call void @llvm.memset.p0.i64(ptr noundef nonnull align 8 dereferenceable(24) %5, i8 0, i64 24, i1 false)
  store ptr getelementptr inbounds nuw inrange(-16, 176) (i8, ptr @_ZTVN4llvm19MachineTraceMetricsE, i64 16), ptr %0, align 8
  %6 = getelementptr inbounds nuw i8, ptr %0, i64 56
  %7 = getelementptr inbounds nuw i8, ptr %0, i64 96
  tail call void @llvm.memset.p0.i64(ptr noundef nonnull align 8 dereferenceable(40) %6, i8 0, i64 40, i1 false)
  tail call void @llvm.memcpy.p0.p0.i64(ptr noundef nonnull align 8 dereferenceable(280) %7, ptr noundef nonnull align 8 dereferenceable(72) @_ZN4llvm12MCSchedModel7DefaultE, i64 72, i1 false)
  %8 = getelementptr inbounds nuw i8, ptr %0, i64 168
  tail call void @llvm.memcpy.p0.p0.i64(ptr noundef nonnull align 8 dereferenceable(104) %8, ptr noundef nonnull align 8 dereferenceable(72) @_ZN4llvm12MCSchedModel7DefaultE, i64 72, i1 false)
  %9 = getelementptr inbounds nuw i8, ptr %0, i64 240
  %10 = getelementptr inbounds nuw i8, ptr %0, i64 288
  %11 = getelementptr inbounds nuw i8, ptr %0, i64 304
  tail call void @llvm.memset.p0.i64(ptr noundef nonnull align 8 dereferenceable(48) %9, i8 0, i64 48, i1 false)
  tail call void @_ZN4llvm15SmallVectorBaseIjEC2EPvm(ptr noundef nonnull align 8 dereferenceable(80) %10, ptr noundef nonnull %11, i64 noundef 16) #21
  %12 = getelementptr inbounds nuw i8, ptr %0, i64 368
  store i32 0, ptr %12, align 8
  %13 = getelementptr inbounds nuw i8, ptr %0, i64 372
  store i32 0, ptr %13, align 4
  %14 = getelementptr inbounds nuw i8, ptr %0, i64 376
  %15 = getelementptr inbounds nuw i8, ptr %0, i64 392
  tail call void @_ZN4llvm15SmallVectorBaseIjEC2EPvm(ptr noundef nonnull align 8 dereferenceable(48) %14, ptr noundef nonnull %15, i64 noundef 4) #21
  %16 = getelementptr inbounds nuw i8, ptr %0, i64 424
  %17 = getelementptr inbounds nuw i8, ptr %0, i64 440
  tail call void @_ZN4llvm15SmallVectorBaseIjEC2EPvm(ptr noundef nonnull align 8 dereferenceable(16) %16, ptr noundef nonnull %17, i64 noundef 0) #21
  tail call void @llvm.memset.p0.i64(ptr noundef nonnull align 8 dereferenceable(16) %17, i8 0, i64 16, i1 false)
  ret void
}